target datalayout = "e-m:e-p270:32:32-p271:32:32-p272:64:64-i64:64-i128:128-f80:128-n8:16:32:64-S128"
target triple = "x86_64-pc-linux-gnu"

%struct.SDL_Keyboard = type { ptr, i16, [512 x i8], [512 x i8], ptr, i32, i8, i64, i32 }

@SDL_keyboard = internal global %struct.SDL_Keyboard zeroinitializer, align 8

; Function Attrs: nounwind uwtable
define hidden void @SDL_ReleaseAutoReleaseKeys() #0 {
  %1 = alloca ptr, align 8
  %2 = alloca i32, align 4
  call void @llvm.lifetime.start.p0(i64 8, ptr %1) #6
  store ptr @SDL_keyboard, ptr %1, align 8
  call void @llvm.lifetime.start.p0(i64 4, ptr %2) #6
  %3 = load ptr, ptr %1, align 8
  %4 = getelementptr inbounds nuw %struct.SDL_Keyboard, ptr %3, i32 0, i32 6
  %5 = load i8, ptr %4, align 4, !range !3, !noundef !4
  %6 = trunc i8 %5 to i1
  br i1 %6, label %7, label %30

7:                                                ; preds = %0
  store i32 0, ptr %2, align 4
  br label %8

8:                                                ; preds = %24, %7
  %9 = load i32, ptr %2, align 4
  %10 = icmp slt i32 %9, 512
  br i1 %10, label %11, label %27

11:                                               ; preds = %8
  %12 = load ptr, ptr %1, align 8
  %13 = getelementptr inbounds nuw %struct.SDL_Keyboard, ptr %12, i32 0, i32 2
  %14 = load i32, ptr %2, align 4
  %15 = sext i32 %14 to i64
  %16 = getelementptr inbounds [512 x i8], ptr %13, i64 0, i64 %15
  %17 = load i8, ptr %16, align 1
  %18 = zext i8 %17 to i32
  %19 = icmp eq i32 %18, 4
  br i1 %19, label %20, label %23

20:                                               ; preds = %11
  %21 = load i32, ptr %2, align 4
  %22 = call zeroext i1 @SDL_SendKeyboardKeyInternal(i64 noundef 0, i32 noundef 4, i32 noundef 0, i32 noundef 0, i32 noundef %21, i1 noundef zeroext false)
  br label %23

23:                                               ; preds = %20, %11
  br label %24

24:                                               ; preds = %23
  %25 = load i32, ptr %2, align 4
  %26 = add nsw i32 %25, 1
  store i32 %26, ptr %2, align 4
  br label %8, !llvm.loop !11

27:                                               ; preds = %8
  %28 = load ptr, ptr %1, align 8
  %29 = getelementptr inbounds nuw %struct.SDL_Keyboard, ptr %28, i32 0, i32 6
  store i8 0, ptr %29, align 4
  br label %30

30:                                               ; preds = %27, %0
  %31 = load ptr, ptr %1, align 8
  %32 = getelementptr inbounds nuw %struct.SDL_Keyboard, ptr %31, i32 0, i32 7
  %33 = load i64, ptr %32, align 8
  %34 = icmp ne i64 %33, 0
  br i1 %34, label %35, label %46

35:                                               ; preds = %30
  %36 = call i64 @SDL_GetTicks_REAL()
  %37 = load ptr, ptr %1, align 8
  %38 = getelementptr inbounds nuw %struct.SDL_Keyboard, ptr %37, i32 0, i32 7
  %39 = load i64, ptr %38, align 8
  %40 = add i64 %39, 250
  %41 = icmp uge i64 %36, %40
  br i1 %41, label %42, label %45

42:                                               ; preds = %35
  %43 = load ptr, ptr %1, align 8
  %44 = getelementptr inbounds nuw %struct.SDL_Keyboard, ptr %43, i32 0, i32 7
  store i64 0, ptr %44, align 8
  br label %45

45:                                               ; preds = %42, %35
  br label %46

46:                                               ; preds = %45, %30
  call void @llvm.lifetime.end.p0(i64 4, ptr %2) #6
  call void @llvm.lifetime.end.p0(i64 8, ptr %1) #6
  ret void
}