; Function Attrs: nounwind uwtable
define hidden void @SDL_ReleaseAutoReleaseKeys() local_unnamed_addr #0 {
  %1 = load i8, ptr getelementptr inbounds nuw (i8, ptr @SDL_keyboard, i64 1052), align 4, !range !6, !noundef !7
  %2 = trunc nuw i8 %1 to i1
  br i1 %2, label %.preheader, label %11

.preheader:                                       ; preds = %0, %9
  %indvars.iv = phi i64 [ %indvars.iv.next, %9 ], [ 0, %0 ]
  %3 = getelementptr inbounds nuw [512 x i8], ptr getelementptr inbounds nuw (i8, ptr @SDL_keyboard, i64 10), i64 0, i64 %indvars.iv
  %4 = load i8, ptr %3, align 1
  %5 = icmp eq i8 %4, 4
  br i1 %5, label %6, label %9

6:                                                ; preds = %.preheader
  %7 = trunc nuw nsw i64 %indvars.iv to i32
  %8 = tail call fastcc zeroext i1 @SDL_SendKeyboardKeyInternal(i64 noundef 0, i32 noundef 4, i32 noundef 0, i32 noundef 0, i32 noundef %7, i1 noundef zeroext false)
  br label %9

9:                                                ; preds = %.preheader, %6
  %indvars.iv.next = add nuw nsw i64 %indvars.iv, 1
  %exitcond.not = icmp eq i64 %indvars.iv.next, 512
  br i1 %exitcond.not, label %10, label %.preheader, !llvm.loop !11

10:                                               ; preds = %9
  store i8 0, ptr getelementptr inbounds nuw (i8, ptr @SDL_keyboard, i64 1052), align 4
  br label %11

11:                                               ; preds = %10, %0
  %12 = load i64, ptr getelementptr inbounds nuw (i8, ptr @SDL_keyboard, i64 1056), align 8
  %.not = icmp eq i64 %12, 0
  br i1 %.not, label %18, label %13

13:                                               ; preds = %11
  %14 = tail call i64 @SDL_GetTicks_REAL() #13
  %15 = load i64, ptr getelementptr inbounds nuw (i8, ptr @SDL_keyboard, i64 1056), align 8
  %16 = add i64 %15, 250
  %.not9 = icmp ult i64 %14, %16
  br i1 %.not9, label %18, label %17

17:                                               ; preds = %13
  store i64 0, ptr getelementptr inbounds nuw (i8, ptr @SDL_keyboard, i64 1056), align 8
  br label %18

18:                                               ; preds = %13, %17, %11
  ret void
}